; Function Attrs: nounwind uwtable
define dso_local range(i32 -901, 1) i32 @nghttp2_bufs_init2(ptr noundef writeonly captures(none) %0, i64 noundef %1, i64 noundef %2, i64 noundef %3, ptr noundef %4) local_unnamed_addr #1 {
  %or.cond.i = icmp eq i64 %2, 0
  %6 = icmp ult i64 %1, %3
  %or.cond32.i = or i1 %or.cond.i, %6
  br i1 %or.cond32.i, label %nghttp2_bufs_init3.exit, label %7

7:                                                ; preds = %5
  %8 = tail call ptr @nghttp2_mem_malloc(ptr noundef %4, i64 noundef 48) #10
  %9 = icmp eq ptr %8, null
  br i1 %9, label %nghttp2_bufs_init3.exit, label %10

10:                                               ; preds = %7
  %11 = getelementptr inbounds nuw i8, ptr %8, i64 8
  %12 = getelementptr inbounds nuw i8, ptr %8, i64 16
  %.not.i.not.i.i.i = icmp eq i64 %1, 0
  tail call void @llvm.memset.p0.i64(ptr noundef nonnull align 8 dereferenceable(48) %8, i8 0, i64 48, i1 false)
  br i1 %.not.i.not.i.i.i, label %35, label %13

13:                                               ; preds = %10
  %14 = tail call ptr @nghttp2_mem_realloc(ptr noundef %4, ptr noundef null, i64 noundef %1) #10
  %15 = icmp eq ptr %14, null
  br i1 %15, label %nghttp2_buf_init2.exit.i.i, label %16

16:                                               ; preds = %13
  %17 = getelementptr inbounds nuw i8, ptr %8, i64 24
  %18 = load ptr, ptr %17, align 8, !tbaa !4
  %19 = load ptr, ptr %11, align 8, !tbaa !10
  %20 = ptrtoint ptr %18 to i64
  %21 = ptrtoint ptr %19 to i64
  %22 = sub i64 %20, %21
  %23 = getelementptr inbounds i8, ptr %14, i64 %22
  %24 = getelementptr inbounds nuw i8, ptr %8, i64 32
  %25 = load ptr, ptr %24, align 8, !tbaa !11
  %26 = ptrtoint ptr %25 to i64
  %27 = sub i64 %26, %21
  %28 = getelementptr inbounds i8, ptr %14, i64 %27
  %29 = getelementptr inbounds nuw i8, ptr %8, i64 40
  %30 = load ptr, ptr %29, align 8, !tbaa !12
  %31 = ptrtoint ptr %30 to i64
  %32 = sub i64 %31, %21
  %33 = getelementptr inbounds i8, ptr %14, i64 %32
  store ptr %33, ptr %29, align 8, !tbaa !12
  store ptr %14, ptr %11, align 8, !tbaa !10
  %34 = getelementptr inbounds nuw i8, ptr %14, i64 %1
  store ptr %34, ptr %12, align 8, !tbaa !13
  br label %35

nghttp2_buf_init2.exit.i.i:                       ; preds = %13
  tail call void @nghttp2_mem_free(ptr noundef %4, ptr noundef nonnull %8) #10
  br label %nghttp2_bufs_init3.exit

35:                                               ; preds = %16, %10
  %36 = phi ptr [ %28, %16 ], [ null, %10 ]
  %37 = phi ptr [ %23, %16 ], [ null, %10 ]
  %38 = getelementptr inbounds nuw i8, ptr %0, i64 16
  store ptr %4, ptr %38, align 8, !tbaa !14
  %39 = getelementptr inbounds nuw i8, ptr %0, i64 56
  store i64 %3, ptr %39, align 8, !tbaa !18
  store ptr %8, ptr %0, align 8, !tbaa !19
  %40 = getelementptr inbounds nuw i8, ptr %0, i64 8
  store ptr %8, ptr %40, align 8, !tbaa !20
  %41 = getelementptr inbounds nuw i8, ptr %8, i64 24
  %42 = getelementptr inbounds nuw i8, ptr %37, i64 %3
  store ptr %42, ptr %41, align 8, !tbaa !21
  %43 = getelementptr inbounds nuw i8, ptr %8, i64 32
  %44 = getelementptr inbounds nuw i8, ptr %36, i64 %3
  store ptr %44, ptr %43, align 8, !tbaa !23
  %45 = getelementptr inbounds nuw i8, ptr %0, i64 24
  store i64 %1, ptr %45, align 8, !tbaa !24
  %46 = getelementptr inbounds nuw i8, ptr %0, i64 40
  store i64 1, ptr %46, align 8, !tbaa !25
  %47 = getelementptr inbounds nuw i8, ptr %0, i64 32
  store i64 %2, ptr %47, align 8, !tbaa !26
  %48 = getelementptr inbounds nuw i8, ptr %0, i64 48
  store i64 %2, ptr %48, align 8, !tbaa !27
  br label %nghttp2_bufs_init3.exit

nghttp2_bufs_init3.exit:                          ; preds = %5, %7, %nghttp2_buf_init2.exit.i.i, %35
  %.0.i = phi i32 [ 0, %35 ], [ -501, %5 ], [ -901, %nghttp2_buf_init2.exit.i.i ], [ -901, %7 ]
  ret i32 %.0.i
}